Certificate:
    Data:
        Version: 3 (0x2)
        Serial Number: 2 (0x2)
        Signature Algorithm: sha256WithRSAEncryption
        Issuer: C=FR, ST=Radius, L=Somewhere, O=Example Inc./emailAddress=admin@example.org, CN=Example Certificate Authority
        Validity
            Not Before: Jul 14 08:32:45 2021 GMT
            Not After : Sep 12 08:32:45 2021 GMT
        Subject: C=FR, ST=Radius, O=Example Inc., CN=user@example.org/emailAddress=user@example.org
        Subject Public Key Info:
            Public Key Algorithm: rsaEncryption
                RSA Public-Key: (2048 bit)
                Modulus:
                    00:e2:a9:4f:73:f2:33:49:8c:ca:d2:4c:63:ff:f9:
                    cf:b5:11:a2:9d:a5:5a:a8:bc:e7:53:b2:24:91:ad:
                    9a:86:93:f0:3f:48:4e:f7:b3:cb:58:d4:89:4a:cf:
                    77:10:91:17:e9:02:5b:4f:c4:ba:ac:38:c7:79:6b:
                    11:f0:a7:aa:3a:af:ed:31:f7:1f:6e:33:b7:94:8a:
                    bf:a4:48:00:01:62:73:d5:01:33:17:3f:0f:e9:a1:
                    a9:f0:29:ef:d2:12:aa:bf:0a:09:19:76:64:e5:42:
                    db:5e:9e:cd:63:b6:70:d9:06:1c:59:01:73:38:06:
                    3c:bb:ef:ac:4a:63:6b:92:69:5f:25:80:83:0f:f6:
                    fa:0e:9b:b3:b4:83:d0:5b:ed:5c:dd:86:1c:fa:e1:
                    ba:8c:e1:10:87:cd:24:e3:62:be:64:18:61:a4:d4:
                    83:7c:95:db:b1:de:36:de:6c:95:90:95:32:b6:a8:
                    3f:61:37:43:50:d0:7e:51:7d:45:0d:99:1c:d7:e8:
                    4a:b8:a0:ad:43:8e:42:0b:87:06:99:61:af:77:78:
                    c5:20:f1:99:64:57:cf:9c:21:f0:b3:b3:50:0a:17:
                    e9:b4:0c:fe:b5:46:61:3e:fd:74:26:d0:85:27:c6:
                    f4:c3:0c:60:56:10:36:40:81:5e:17:6b:2d:4a:dd:
                    52:2d
                Exponent: 65537 (0x10001)
        X509v3 extensions:
            X509v3 Extended Key Usage: 
                TLS Web Client Authentication
            X509v3 CRL Distribution Points: 

                Full Name:
                  URI:http://www.example.com/example_ca.crl

    Signature Algorithm: sha256WithRSAEncryption
         cb:76:a9:dc:66:ee:16:83:47:20:40:a1:f7:fe:df:22:c9:52:
         b3:1a:25:10:ea:49:16:22:0f:8f:c3:bd:ba:34:5a:e0:b5:02:
         21:3f:9c:b9:cb:60:6e:d0:54:83:ec:ab:a6:b3:22:fd:c8:28:
         d6:e8:12:cb:df:41:ec:7b:53:23:45:50:94:d5:a2:8d:68:8a:
         2f:48:08:56:82:85:96:da:3a:09:a9:cd:8b:21:0c:3a:d1:f6:
         42:73:fe:10:cc:20:b3:2d:6f:ae:a3:d6:d4:79:72:9b:6f:42:
         d9:61:17:c7:23:a2:8e:ef:f0:f2:a4:05:72:8a:e4:d8:8b:58:
         3e:a0:f4:0f:57:51:38:cd:2b:33:43:c7:b9:f5:08:51:03:bd:
         8e:88:82:ca:42:1a:70:74:d3:c5:98:23:b2:d8:7a:24:ac:90:
         6a:d4:56:bf:22:a1:c8:8c:34:2b:88:43:a3:80:3c:57:0a:a5:
         82:51:c4:9c:e5:f7:21:7c:83:7d:30:a0:82:ad:f6:94:67:02:
         ac:0e:6e:eb:db:fc:c2:d5:7a:33:aa:3a:d0:4f:b6:0e:87:c3:
         b2:3a:9d:eb:e1:f2:89:5e:29:bc:0d:fa:bc:95:82:be:e8:7f:
         71:44:08:b1:80:60:ae:74:8b:2a:17:a2:ce:46:cc:7d:03:91:
         49:5a:83:ef
-----BEGIN CERTIFICATE-----
MIIDzzCCAregAwIBAgIBAjANBgkqhkiG9w0BAQsFADCBkzELMAkGA1UEBhMCRlIx
DzANBgNVBAgMBlJhZGl1czESMBAGA1UEBwwJU29tZXdoZXJlMRUwEwYDVQQKDAxF
eGFtcGxlIEluYy4xIDAeBgkqhkiG9w0BCQEWEWFkbWluQGV4YW1wbGUub3JnMSYw
JAYDVQQDDB1FeGFtcGxlIENlcnRpZmljYXRlIEF1dGhvcml0eTAeFw0yMTA3MTQw
ODMyNDVaFw0yMTA5MTIwODMyNDVaMHExCzAJBgNVBAYTAkZSMQ8wDQYDVQQIDAZS
YWRpdXMxFTATBgNVBAoMDEV4YW1wbGUgSW5jLjEZMBcGA1UEAwwQdXNlckBleGFt
cGxlLm9yZzEfMB0GCSqGSIb3DQEJARYQdXNlckBleGFtcGxlLm9yZzCCASIwDQYJ
KoZIhvcNAQEBBQADggEPADCCAQoCggEBAOKpT3PyM0mMytJMY//5z7URop2lWqi8
51OyJJGtmoaT8D9ITvezy1jUiUrPdxCRF+kCW0/Euqw4x3lrEfCnqjqv7TH3H24z
t5SKv6RIAAFic9UBMxc/D+mhqfAp79ISqr8KCRl2ZOVC216ezWO2cNkGHFkBczgG
PLvvrEpja5JpXyWAgw/2+g6bs7SD0FvtXN2GHPrhuozhEIfNJONivmQYYaTUg3yV
27HeNt5slZCVMraoP2E3Q1DQflF9RQ2ZHNfoSrigrUOOQguHBplhr3d4xSDxmWRX
z5wh8LOzUAoX6bQM/rVGYT79dCbQhSfG9MMMYFYQNkCBXhdrLUrdUi0CAwEAAaNP
ME0wEwYDVR0lBAwwCgYIKwYBBQUHAwIwNgYDVR0fBC8wLTAroCmgJ4YlaHR0cDov
L3d3dy5leGFtcGxlLmNvbS9leGFtcGxlX2NhLmNybDANBgkqhkiG9w0BAQsFAAOC
AQEAy3ap3GbuFoNHIECh9/7fIslSsxolEOpJFiIPj8O9ujRa4LUCIT+cuctgbtBU
g+yrprMi/cgo1ugSy99B7HtTI0VQlNWijWiKL0gIVoKFlto6CanNiyEMOtH2QnP+
EMwgsy1vrqPW1Hlym29C2WEXxyOiju/w8qQFcork2ItYPqD0D1dROM0rM0PHufUI
UQO9joiCykIacHTTxZgjsth6JKyQatRWvyKhyIw0K4hDo4A8VwqlglHEnOX3IXyD
fTCggq32lGcCrA5u69v8wtV6M6o60E+2DofDsjqd6+HyiV4pvA36vJWCvuh/cUQI
sYBgrnSLKheizkbMfQORSVqD7w==
-----END CERTIFICATE-----
