Certificate:
    Data:
        Version: 3 (0x2)
        Serial Number: 1 (0x1)
        Signature Algorithm: sha256WithRSAEncryption
        Issuer: C=RU, ST=21, L=Ch, O=Alyans Auto./emailAddress=k.stepanov@alyans-auto.ru, CN=Alyans Auto Radius Certificate Authority
        Validity
            Not Before: Sep  8 11:12:15 2021 GMT
            Not After : Sep  6 11:12:15 2031 GMT
        Subject: C=RU, ST=21, O=Alyans Auto., CN=Alyans Auto Radius Certificate Authority/emailAddress=k.stepanov@alyans-auto.ru
        Subject Public Key Info:
            Public Key Algorithm: rsaEncryption
                RSA Public-Key: (2048 bit)
                Modulus:
                    00:f8:06:5e:50:de:9c:e1:a8:84:96:60:ca:7e:80:
                    09:e1:c2:d9:95:b7:c6:fe:85:fd:69:4d:c0:ea:84:
                    c5:5c:33:e1:bf:cf:32:36:99:4b:d8:29:f0:a1:26:
                    d1:01:15:4c:e1:a1:95:c7:74:5e:e0:9e:cb:1b:45:
                    ee:2d:98:ca:52:90:46:39:7d:93:a3:c1:58:d2:75:
                    b5:d0:a4:96:fd:f6:49:8f:0f:41:c9:d1:87:8d:d8:
                    20:1c:bc:aa:e8:bb:a9:98:9f:e4:9c:eb:59:6e:d1:
                    15:96:90:80:55:65:b8:52:f8:be:49:b2:9e:c1:96:
                    58:3e:75:67:e3:9f:9f:05:af:8f:7d:dc:a2:0f:c4:
                    13:56:3f:6f:81:6a:18:3e:4b:24:80:b0:96:2d:05:
                    49:c4:6d:a6:33:00:cf:03:fb:d8:71:cf:26:19:2c:
                    13:88:dd:a5:49:5b:a6:41:2a:da:3c:94:0b:2f:4b:
                    3d:e0:5e:34:ab:7e:47:0b:8d:68:ae:b7:b7:bc:79:
                    12:99:79:ad:44:c4:19:20:92:f2:44:a5:21:e0:11:
                    35:64:93:88:b3:20:b1:a1:b8:c8:e7:20:a7:6a:9d:
                    20:b4:b9:39:b7:b5:49:4c:78:41:64:cd:50:ca:86:
                    68:88:4f:ba:28:f7:ec:98:8e:9c:83:ae:a0:ce:09:
                    ba:99
                Exponent: 65537 (0x10001)
        X509v3 extensions:
            X509v3 Extended Key Usage: 
                TLS Web Server Authentication
            X509v3 CRL Distribution Points: 

                Full Name:
                  URI:http://www.example.com/example_ca.crl

            X509v3 Certificate Policies: 
                Policy: 1.3.6.1.4.1.40808.1.3.2

    Signature Algorithm: sha256WithRSAEncryption
         aa:47:b1:63:f4:d0:a2:2e:a2:0c:ff:22:d0:9d:aa:31:7f:a7:
         49:aa:7e:ff:b9:f8:f2:e5:4c:61:ec:64:52:e4:07:7c:6f:71:
         75:60:7a:fd:d5:51:1c:32:a6:4d:cf:e3:aa:ac:f6:da:86:95:
         fe:c3:df:b1:74:dd:27:bf:23:31:3c:df:5d:06:b5:86:01:34:
         5c:30:1d:df:ee:ae:fa:4f:7d:86:fd:32:90:1b:21:b6:ec:3e:
         48:c2:6f:5b:a0:01:bc:93:bd:e2:8e:aa:b8:b8:98:ee:bf:96:
         ee:6a:c4:e5:45:5d:e1:d1:c9:16:b8:92:12:22:c4:73:7f:7f:
         f5:c8:8a:e2:e1:25:0f:7e:9b:30:ce:74:b3:5e:82:30:d5:3b:
         c4:10:4c:89:c3:d8:4c:10:b4:d3:88:c2:85:15:d2:14:ff:b9:
         3c:9d:3f:a5:47:85:bf:b6:f0:76:1f:29:d3:63:51:66:d0:8d:
         f6:e5:dc:da:06:68:40:a8:c0:e0:cd:f1:d0:b4:07:a5:0a:bf:
         97:3b:9b:ee:1a:84:51:44:7f:04:d7:6f:c4:7c:22:12:4d:51:
         00:48:c6:de:63:34:ea:99:89:6c:a6:b2:5c:7b:f5:58:1e:a8:
         2a:0d:c0:22:bf:72:0c:4d:4f:ab:f4:ad:8d:7f:b2:45:e7:92:
         6d:8c:40:f0
-----BEGIN CERTIFICATE-----
MIIEDzCCAvegAwIBAgIBATANBgkqhkiG9w0BAQsFADCBmzELMAkGA1UEBhMCUlUx
CzAJBgNVBAgMAjIxMQswCQYDVQQHDAJDaDEVMBMGA1UECgwMQWx5YW5zIEF1dG8u
MSgwJgYJKoZIhvcNAQkBFhlrLnN0ZXBhbm92QGFseWFucy1hdXRvLnJ1MTEwLwYD
VQQDDChBbHlhbnMgQXV0byBSYWRpdXMgQ2VydGlmaWNhdGUgQXV0aG9yaXR5MB4X
DTIxMDkwODExMTIxNVoXDTMxMDkwNjExMTIxNVowgY4xCzAJBgNVBAYTAlJVMQsw
CQYDVQQIDAIyMTEVMBMGA1UECgwMQWx5YW5zIEF1dG8uMTEwLwYDVQQDDChBbHlh
bnMgQXV0byBSYWRpdXMgQ2VydGlmaWNhdGUgQXV0aG9yaXR5MSgwJgYJKoZIhvcN
AQkBFhlrLnN0ZXBhbm92QGFseWFucy1hdXRvLnJ1MIIBIjANBgkqhkiG9w0BAQEF
AAOCAQ8AMIIBCgKCAQEA+AZeUN6c4aiElmDKfoAJ4cLZlbfG/oX9aU3A6oTFXDPh
v88yNplL2CnwoSbRARVM4aGVx3Re4J7LG0XuLZjKUpBGOX2To8FY0nW10KSW/fZJ
jw9BydGHjdggHLyq6LupmJ/knOtZbtEVlpCAVWW4Uvi+SbKewZZYPnVn45+fBa+P
fdyiD8QTVj9vgWoYPkskgLCWLQVJxG2mMwDPA/vYcc8mGSwTiN2lSVumQSraPJQL
L0s94F40q35HC41orre3vHkSmXmtRMQZIJLyRKUh4BE1ZJOIsyCxobjI5yCnap0g
tLk5t7VJTHhBZM1QyoZoiE+6KPfsmI6cg66gzgm6mQIDAQABo2kwZzATBgNVHSUE
DDAKBggrBgEFBQcDATA2BgNVHR8ELzAtMCugKaAnhiVodHRwOi8vd3d3LmV4YW1w
bGUuY29tL2V4YW1wbGVfY2EuY3JsMBgGA1UdIAQRMA8wDQYLKwYBBAGCvmgBAwIw
DQYJKoZIhvcNAQELBQADggEBAKpHsWP00KIuogz/ItCdqjF/p0mqfv+5+PLlTGHs
ZFLkB3xvcXVgev3VURwypk3P46qs9tqGlf7D37F03Se/IzE8310GtYYBNFwwHd/u
rvpPfYb9MpAbIbbsPkjCb1ugAbyTveKOqri4mO6/lu5qxOVFXeHRyRa4khIixHN/
f/XIiuLhJQ9+mzDOdLNegjDVO8QQTInD2EwQtNOIwoUV0hT/uTydP6VHhb+28HYf
KdNjUWbQjfbl3NoGaECowODN8dC0B6UKv5c7m+4ahFFEfwTXb8R8IhJNUQBIxt5j
NOqZiWymslx79VgeqCoNwCK/cgxNT6v0rY1/skXnkm2MQPA=
-----END CERTIFICATE-----
