Certificate:
    Data:
        Version: 3 (0x2)
        Serial Number: 1 (0x1)
        Signature Algorithm: sha256WithRSAEncryption
        Issuer: C=FR, ST=Radius, L=Somewhere, O=Example Inc./emailAddress=admin@example.org, CN=Example Certificate Authority
        Validity
            Not Before: Sep  8 09:50:23 2021 GMT
            Not After : Sep  6 09:50:23 2031 GMT
        Subject: C=FR, ST=Radius, O=Example Inc., CN=Example Server Certificate/emailAddress=admin@example.org
        Subject Public Key Info:
            Public Key Algorithm: rsaEncryption
                RSA Public-Key: (2048 bit)
                Modulus:
                    00:e2:a4:9f:85:66:c6:6a:d2:13:b9:c3:13:6e:92:
                    20:87:8c:75:81:e9:6c:86:82:fe:4d:c2:cb:51:5d:
                    8a:1b:85:21:7a:db:3d:9c:4b:a4:71:c6:55:95:b3:
                    34:67:ec:09:06:aa:d6:06:93:d5:49:3f:16:f4:b2:
                    53:56:55:5f:32:01:8d:88:46:c9:39:21:2b:86:e1:
                    d2:47:12:ef:df:31:6a:da:6a:89:88:35:f3:40:d3:
                    2b:0b:9e:c2:ec:5c:64:fe:e8:92:a7:45:68:ec:18:
                    52:74:e2:77:68:33:2e:82:df:2a:23:0b:9e:37:c8:
                    b4:93:cd:71:65:25:a8:59:49:9f:89:8d:77:ba:d3:
                    00:d2:b1:31:7c:71:0b:7d:d3:34:63:5a:2b:bf:a1:
                    c5:71:da:68:11:1b:ad:ba:9f:c2:24:7e:fd:f6:3e:
                    0e:60:ec:12:28:7d:2f:ab:46:5b:c8:0a:06:d8:3a:
                    19:57:b0:36:dd:d8:ac:b5:24:88:33:da:25:da:d8:
                    1f:bf:79:ef:6c:6a:36:ae:37:16:ad:a8:24:e3:eb:
                    57:f4:60:34:97:c0:66:ae:7b:ed:ed:03:b2:01:32:
                    80:dd:f3:27:26:e0:ac:11:fe:b8:a0:9e:57:4c:36:
                    15:b9:1a:ee:52:93:bc:d0:35:96:40:d0:a5:95:ed:
                    99:f9
                Exponent: 65537 (0x10001)
        X509v3 extensions:
            X509v3 Extended Key Usage: 
                TLS Web Server Authentication
            X509v3 CRL Distribution Points: 

                Full Name:
                  URI:http://www.example.com/example_ca.crl

            X509v3 Certificate Policies: 
                Policy: 1.3.6.1.4.1.40808.1.3.2

    Signature Algorithm: sha256WithRSAEncryption
         a5:5a:0c:43:0e:4c:11:bc:57:68:62:08:24:87:d5:59:66:03:
         45:f8:5a:c5:76:ba:fc:df:7c:9c:b2:4c:1b:ae:ed:58:8d:d7:
         e0:fa:c2:a3:36:e8:27:05:d0:69:3a:ef:df:2b:81:3b:4f:02:
         2d:90:92:6c:f4:d3:56:a3:0a:d0:51:bb:b9:93:cb:2e:dc:bf:
         53:05:5c:cf:03:0c:d7:53:5c:9c:5a:86:08:5b:41:80:57:cf:
         a2:80:48:ff:9a:9f:06:3a:c8:3d:30:7a:cd:c3:d0:93:bc:b0:
         43:66:c5:a7:ff:50:83:dd:55:1d:b6:40:d4:4d:09:0b:9f:60:
         1f:b4:fa:74:a2:6c:97:3a:0c:01:df:73:ec:76:5e:8f:1b:95:
         cf:11:cd:5e:05:c6:3e:85:65:39:a8:c6:87:14:54:47:e6:35:
         9a:a3:5d:a6:84:89:3e:b5:ae:7f:13:39:5c:ef:88:cb:a2:7c:
         c5:d9:31:54:7f:3e:18:9e:d4:5c:27:d2:6f:ba:1f:6e:b8:90:
         27:04:24:52:de:92:0f:d3:e7:5c:80:99:4f:8e:3e:d5:ca:fb:
         4d:09:f0:09:09:b2:50:d7:36:63:c2:32:5b:fc:b6:99:9e:28:
         ee:e7:8a:17:41:6c:2e:af:ac:91:94:6d:8e:83:64:66:fd:92:
         71:51:ef:a0
-----BEGIN CERTIFICATE-----
MIID9DCCAtygAwIBAgIBATANBgkqhkiG9w0BAQsFADCBkzELMAkGA1UEBhMCRlIx
DzANBgNVBAgMBlJhZGl1czESMBAGA1UEBwwJU29tZXdoZXJlMRUwEwYDVQQKDAxF
eGFtcGxlIEluYy4xIDAeBgkqhkiG9w0BCQEWEWFkbWluQGV4YW1wbGUub3JnMSYw
JAYDVQQDDB1FeGFtcGxlIENlcnRpZmljYXRlIEF1dGhvcml0eTAeFw0yMTA5MDgw
OTUwMjNaFw0zMTA5MDYwOTUwMjNaMHwxCzAJBgNVBAYTAkZSMQ8wDQYDVQQIDAZS
YWRpdXMxFTATBgNVBAoMDEV4YW1wbGUgSW5jLjEjMCEGA1UEAwwaRXhhbXBsZSBT
ZXJ2ZXIgQ2VydGlmaWNhdGUxIDAeBgkqhkiG9w0BCQEWEWFkbWluQGV4YW1wbGUu
b3JnMIIBIjANBgkqhkiG9w0BAQEFAAOCAQ8AMIIBCgKCAQEA4qSfhWbGatITucMT
bpIgh4x1gelshoL+TcLLUV2KG4Uhets9nEukccZVlbM0Z+wJBqrWBpPVST8W9LJT
VlVfMgGNiEbJOSErhuHSRxLv3zFq2mqJiDXzQNMrC57C7Fxk/uiSp0Vo7BhSdOJ3
aDMugt8qIwueN8i0k81xZSWoWUmfiY13utMA0rExfHELfdM0Y1orv6HFcdpoERut
up/CJH799j4OYOwSKH0vq0ZbyAoG2DoZV7A23distSSIM9ol2tgfv3nvbGo2rjcW
ragk4+tX9GA0l8Bmrnvt7QOyATKA3fMnJuCsEf64oJ5XTDYVuRruUpO80DWWQNCl
le2Z+QIDAQABo2kwZzATBgNVHSUEDDAKBggrBgEFBQcDATA2BgNVHR8ELzAtMCug
KaAnhiVodHRwOi8vd3d3LmV4YW1wbGUuY29tL2V4YW1wbGVfY2EuY3JsMBgGA1Ud
IAQRMA8wDQYLKwYBBAGCvmgBAwIwDQYJKoZIhvcNAQELBQADggEBAKVaDEMOTBG8
V2hiCCSH1VlmA0X4WsV2uvzffJyyTBuu7ViN1+D6wqM26CcF0Gk6798rgTtPAi2Q
kmz001ajCtBRu7mTyy7cv1MFXM8DDNdTXJxahghbQYBXz6KASP+anwY6yD0wes3D
0JO8sENmxaf/UIPdVR22QNRNCQufYB+0+nSibJc6DAHfc+x2Xo8blc8RzV4Fxj6F
ZTmoxocUVEfmNZqjXaaEiT61rn8TOVzviMuifMXZMVR/Phie1Fwn0m+6H264kCcE
JFLekg/T51yAmU+OPtXK+00J8AkJslDXNmPCMlv8tpmeKO7nihdBbC6vrJGUbY6D
ZGb9knFR76A=
-----END CERTIFICATE-----
